target datalayout = "e-m:e-p270:32:32-p271:32:32-p272:64:64-i64:64-i128:128-f80:128-n8:16:32:64-S128"
target triple = "x86_64-pc-linux-gnu"

@Abc_TtCofactorPerm.pCopy1 = internal global [1024 x i64] zeroinitializer, align 16

; Function Attrs: inlinehint nounwind uwtable
define internal i32 @Abc_TtCompareRev(ptr noundef %0, ptr noundef %1, i32 noundef %2) #2 {
  %4 = alloca i32, align 4
  %5 = alloca ptr, align 8
  %6 = alloca ptr, align 8
  %7 = alloca i32, align 4
  %8 = alloca i32, align 4
  %9 = alloca i32, align 4
  store ptr %0, ptr %5, align 8, !tbaa !3
  store ptr %1, ptr %6, align 8, !tbaa !3
  store i32 %2, ptr %7, align 4, !tbaa !8
  call void @llvm.lifetime.start.p0(i64 4, ptr %8) #12
  %10 = load i32, ptr %7, align 4, !tbaa !8
  %11 = sub nsw i32 %10, 1
  store i32 %11, ptr %8, align 4, !tbaa !8
  br label %12

12:                                               ; preds = %41, %3
  %13 = load i32, ptr %8, align 4, !tbaa !8
  %14 = icmp sge i32 %13, 0
  br i1 %14, label %15, label %44

15:                                               ; preds = %12
  %16 = load ptr, ptr %5, align 8, !tbaa !3
  %17 = load i32, ptr %8, align 4, !tbaa !8
  %18 = sext i32 %17 to i64
  %19 = getelementptr inbounds i64, ptr %16, i64 %18
  %20 = load i64, ptr %19, align 8, !tbaa !10
  %21 = load ptr, ptr %6, align 8, !tbaa !3
  %22 = load i32, ptr %8, align 4, !tbaa !8
  %23 = sext i32 %22 to i64
  %24 = getelementptr inbounds i64, ptr %21, i64 %23
  %25 = load i64, ptr %24, align 8, !tbaa !10
  %26 = icmp ne i64 %20, %25
  br i1 %26, label %27, label %40

27:                                               ; preds = %15
  %28 = load ptr, ptr %5, align 8, !tbaa !3
  %29 = load i32, ptr %8, align 4, !tbaa !8
  %30 = sext i32 %29 to i64
  %31 = getelementptr inbounds i64, ptr %28, i64 %30
  %32 = load i64, ptr %31, align 8, !tbaa !10
  %33 = load ptr, ptr %6, align 8, !tbaa !3
  %34 = load i32, ptr %8, align 4, !tbaa !8
  %35 = sext i32 %34 to i64
  %36 = getelementptr inbounds i64, ptr %33, i64 %35
  %37 = load i64, ptr %36, align 8, !tbaa !10
  %38 = icmp ult i64 %32, %37
  %39 = select i1 %38, i32 -1, i32 1
  store i32 %39, ptr %4, align 4
  store i32 1, ptr %9, align 4
  br label %45

40:                                               ; preds = %15
  br label %41

41:                                               ; preds = %40
  %42 = load i32, ptr %8, align 4, !tbaa !8
  %43 = add nsw i32 %42, -1
  store i32 %43, ptr %8, align 4, !tbaa !8
  br label %12, !llvm.loop !41

44:                                               ; preds = %12
  store i32 0, ptr %4, align 4
  store i32 1, ptr %9, align 4
  br label %45

45:                                               ; preds = %44, %27
  call void @llvm.lifetime.end.p0(i64 4, ptr %8) #12
  %46 = load i32, ptr %4, align 4
  ret i32 %46
}

; Function Attrs: inlinehint nounwind uwtable
define internal void @Abc_TtCopy(ptr noundef %0, ptr noundef %1, i32 noundef %2, i32 noundef %3) #2 {
  %5 = alloca ptr, align 8
  %6 = alloca ptr, align 8
  %7 = alloca i32, align 4
  %8 = alloca i32, align 4
  %9 = alloca i32, align 4
  store ptr %0, ptr %5, align 8, !tbaa !3
  store ptr %1, ptr %6, align 8, !tbaa !3
  store i32 %2, ptr %7, align 4, !tbaa !8
  store i32 %3, ptr %8, align 4, !tbaa !8
  call void @llvm.lifetime.start.p0(i64 4, ptr %9) #12
  %10 = load i32, ptr %8, align 4, !tbaa !8
  %11 = icmp ne i32 %10, 0
  br i1 %11, label %12, label %32

12:                                               ; preds = %4
  store i32 0, ptr %9, align 4, !tbaa !8
  br label %13

13:                                               ; preds = %28, %12
  %14 = load i32, ptr %9, align 4, !tbaa !8
  %15 = load i32, ptr %7, align 4, !tbaa !8
  %16 = icmp slt i32 %14, %15
  br i1 %16, label %17, label %31

17:                                               ; preds = %13
  %18 = load ptr, ptr %6, align 8, !tbaa !3
  %19 = load i32, ptr %9, align 4, !tbaa !8
  %20 = sext i32 %19 to i64
  %21 = getelementptr inbounds i64, ptr %18, i64 %20
  %22 = load i64, ptr %21, align 8, !tbaa !10
  %23 = xor i64 %22, -1
  %24 = load ptr, ptr %5, align 8, !tbaa !3
  %25 = load i32, ptr %9, align 4, !tbaa !8
  %26 = sext i32 %25 to i64
  %27 = getelementptr inbounds i64, ptr %24, i64 %26
  store i64 %23, ptr %27, align 8, !tbaa !10
  br label %28

28:                                               ; preds = %17
  %29 = load i32, ptr %9, align 4, !tbaa !8
  %30 = add nsw i32 %29, 1
  store i32 %30, ptr %9, align 4, !tbaa !8
  br label %13, !llvm.loop !29

31:                                               ; preds = %13
  br label %51

32:                                               ; preds = %4
  store i32 0, ptr %9, align 4, !tbaa !8
  br label %33

33:                                               ; preds = %47, %32
  %34 = load i32, ptr %9, align 4, !tbaa !8
  %35 = load i32, ptr %7, align 4, !tbaa !8
  %36 = icmp slt i32 %34, %35
  br i1 %36, label %37, label %50

37:                                               ; preds = %33
  %38 = load ptr, ptr %6, align 8, !tbaa !3
  %39 = load i32, ptr %9, align 4, !tbaa !8
  %40 = sext i32 %39 to i64
  %41 = getelementptr inbounds i64, ptr %38, i64 %40
  %42 = load i64, ptr %41, align 8, !tbaa !10
  %43 = load ptr, ptr %5, align 8, !tbaa !3
  %44 = load i32, ptr %9, align 4, !tbaa !8
  %45 = sext i32 %44 to i64
  %46 = getelementptr inbounds i64, ptr %43, i64 %45
  store i64 %42, ptr %46, align 8, !tbaa !10
  br label %47

47:                                               ; preds = %37
  %48 = load i32, ptr %9, align 4, !tbaa !8
  %49 = add nsw i32 %48, 1
  store i32 %49, ptr %9, align 4, !tbaa !8
  br label %33, !llvm.loop !30

50:                                               ; preds = %33
  br label %51

51:                                               ; preds = %50, %31
  call void @llvm.lifetime.end.p0(i64 4, ptr %9) #12
  ret void
}

; Function Attrs: nounwind uwtable
define i32 @Abc_TtCofactorPerm(ptr noundef %0, i32 noundef %1, i32 noundef %2, i32 noundef %3, ptr noundef %4, ptr noundef %5, i32 noundef %6) #0 {
  %8 = alloca i32, align 4
  %9 = alloca ptr, align 8
  %10 = alloca i32, align 4
  %11 = alloca i32, align 4
  %12 = alloca i32, align 4
  %13 = alloca ptr, align 8
  %14 = alloca ptr, align 8
  %15 = alloca i32, align 4
  %16 = alloca i32, align 4
  %17 = alloca i32, align 4
  %18 = alloca i32, align 4
  %19 = alloca i32, align 4
  %20 = alloca i32, align 4
  store ptr %0, ptr %9, align 8, !tbaa !3
  store i32 %1, ptr %10, align 4, !tbaa !8
  store i32 %2, ptr %11, align 4, !tbaa !8
  store i32 %3, ptr %12, align 4, !tbaa !8
  store ptr %4, ptr %13, align 8, !tbaa !49
  store ptr %5, ptr %14, align 8, !tbaa !14
  store i32 %6, ptr %15, align 4, !tbaa !8
  %21 = load i32, ptr %12, align 4, !tbaa !8
  %22 = icmp ne i32 %21, 0
  br i1 %22, label %23, label %81

23:                                               ; preds = %7
  call void @llvm.lifetime.start.p0(i64 4, ptr %16) #12
  %24 = load ptr, ptr %9, align 8, !tbaa !3
  %25 = load i32, ptr %10, align 4, !tbaa !8
  %26 = load i32, ptr %11, align 4, !tbaa !8
  %27 = call i32 @Abc_TtCofactorPermConfig(ptr noundef %24, i32 noundef %25, i32 noundef %26, i32 noundef 1, i32 noundef 0)
  store i32 %27, ptr %16, align 4, !tbaa !8
  %28 = load i32, ptr %16, align 4, !tbaa !8
  %29 = icmp ne i32 %28, 0
  br i1 %29, label %30, label %79

30:                                               ; preds = %23
  %31 = load ptr, ptr %14, align 8, !tbaa !14
  %32 = load i32, ptr %31, align 4, !tbaa !8
  %33 = load i32, ptr %10, align 4, !tbaa !8
  %34 = lshr i32 %32, %33
  %35 = and i32 %34, 1
  %36 = load ptr, ptr %14, align 8, !tbaa !14
  %37 = load i32, ptr %36, align 4, !tbaa !8
  %38 = load i32, ptr %10, align 4, !tbaa !8
  %39 = add nsw i32 %38, 1
  %40 = lshr i32 %37, %39
  %41 = and i32 %40, 1
  %42 = icmp ne i32 %35, %41
  br i1 %42, label %43, label %55

43:                                               ; preds = %30
  %44 = load i32, ptr %10, align 4, !tbaa !8
  %45 = shl i32 1, %44
  %46 = load ptr, ptr %14, align 8, !tbaa !14
  %47 = load i32, ptr %46, align 4, !tbaa !8
  %48 = xor i32 %47, %45
  store i32 %48, ptr %46, align 4, !tbaa !8
  %49 = load i32, ptr %10, align 4, !tbaa !8
  %50 = add nsw i32 %49, 1
  %51 = shl i32 1, %50
  %52 = load ptr, ptr %14, align 8, !tbaa !14
  %53 = load i32, ptr %52, align 4, !tbaa !8
  %54 = xor i32 %53, %51
  store i32 %54, ptr %52, align 4, !tbaa !8
  br label %55

55:                                               ; preds = %43, %30
  call void @llvm.lifetime.start.p0(i64 4, ptr %17) #12
  %56 = load ptr, ptr %13, align 8, !tbaa !49
  %57 = load i32, ptr %10, align 4, !tbaa !8
  %58 = sext i32 %57 to i64
  %59 = getelementptr inbounds i8, ptr %56, i64 %58
  %60 = load i8, ptr %59, align 1, !tbaa !51
  %61 = sext i8 %60 to i32
  store i32 %61, ptr %17, align 4, !tbaa !8
  %62 = load ptr, ptr %13, align 8, !tbaa !49
  %63 = load i32, ptr %10, align 4, !tbaa !8
  %64 = add nsw i32 %63, 1
  %65 = sext i32 %64 to i64
  %66 = getelementptr inbounds i8, ptr %62, i64 %65
  %67 = load i8, ptr %66, align 1, !tbaa !51
  %68 = load ptr, ptr %13, align 8, !tbaa !49
  %69 = load i32, ptr %10, align 4, !tbaa !8
  %70 = sext i32 %69 to i64
  %71 = getelementptr inbounds i8, ptr %68, i64 %70
  store i8 %67, ptr %71, align 1, !tbaa !51
  %72 = load i32, ptr %17, align 4, !tbaa !8
  %73 = trunc i32 %72 to i8
  %74 = load ptr, ptr %13, align 8, !tbaa !49
  %75 = load i32, ptr %10, align 4, !tbaa !8
  %76 = add nsw i32 %75, 1
  %77 = sext i32 %76 to i64
  %78 = getelementptr inbounds i8, ptr %74, i64 %77
  store i8 %73, ptr %78, align 1, !tbaa !51
  call void @llvm.lifetime.end.p0(i64 4, ptr %17) #12
  br label %79

79:                                               ; preds = %55, %23
  %80 = load i32, ptr %16, align 4, !tbaa !8
  store i32 %80, ptr %8, align 4
  call void @llvm.lifetime.end.p0(i64 4, ptr %16) #12
  br label %177

81:                                               ; preds = %7
  call void @llvm.lifetime.start.p0(i64 4, ptr %18) #12
  %82 = load ptr, ptr %9, align 8, !tbaa !3
  %83 = load i32, ptr %11, align 4, !tbaa !8
  call void @Abc_TtCopy(ptr noundef @Abc_TtCofactorPerm.pCopy1, ptr noundef %82, i32 noundef %83, i32 noundef 0)
  %84 = load ptr, ptr %9, align 8, !tbaa !3
  %85 = load i32, ptr %10, align 4, !tbaa !8
  %86 = load i32, ptr %11, align 4, !tbaa !8
  %87 = load i32, ptr %15, align 4, !tbaa !8
  %88 = call i32 @Abc_TtCofactorPermConfig(ptr noundef %84, i32 noundef %85, i32 noundef %86, i32 noundef 0, i32 noundef %87)
  store i32 %88, ptr %18, align 4, !tbaa !8
  %89 = load i32, ptr %18, align 4, !tbaa !8
  %90 = icmp eq i32 %89, 0
  br i1 %90, label %91, label %92

91:                                               ; preds = %81
  store i32 0, ptr %8, align 4
  store i32 1, ptr %19, align 4
  br label %176

92:                                               ; preds = %81
  %93 = load ptr, ptr %9, align 8, !tbaa !3
  %94 = load i32, ptr %11, align 4, !tbaa !8
  %95 = call i32 @Abc_TtCompareRev(ptr noundef %93, ptr noundef @Abc_TtCofactorPerm.pCopy1, i32 noundef %94)
  %96 = icmp eq i32 %95, 1
  br i1 %96, label %97, label %100

97:                                               ; preds = %92
  %98 = load ptr, ptr %9, align 8, !tbaa !3
  %99 = load i32, ptr %11, align 4, !tbaa !8
  call void @Abc_TtCopy(ptr noundef %98, ptr noundef @Abc_TtCofactorPerm.pCopy1, i32 noundef %99, i32 noundef 0)
  store i32 0, ptr %8, align 4
  store i32 1, ptr %19, align 4
  br label %176

100:                                              ; preds = %92
  %101 = load i32, ptr %18, align 4, !tbaa !8
  %102 = and i32 %101, 1
  %103 = icmp ne i32 %102, 0
  br i1 %103, label %104, label %110

104:                                              ; preds = %100
  %105 = load i32, ptr %10, align 4, !tbaa !8
  %106 = shl i32 1, %105
  %107 = load ptr, ptr %14, align 8, !tbaa !14
  %108 = load i32, ptr %107, align 4, !tbaa !8
  %109 = xor i32 %108, %106
  store i32 %109, ptr %107, align 4, !tbaa !8
  br label %110

110:                                              ; preds = %104, %100
  %111 = load i32, ptr %18, align 4, !tbaa !8
  %112 = and i32 %111, 2
  %113 = icmp ne i32 %112, 0
  br i1 %113, label %114, label %121

114:                                              ; preds = %110
  %115 = load i32, ptr %10, align 4, !tbaa !8
  %116 = add nsw i32 %115, 1
  %117 = shl i32 1, %116
  %118 = load ptr, ptr %14, align 8, !tbaa !14
  %119 = load i32, ptr %118, align 4, !tbaa !8
  %120 = xor i32 %119, %117
  store i32 %120, ptr %118, align 4, !tbaa !8
  br label %121

121:                                              ; preds = %114, %110
  %122 = load i32, ptr %18, align 4, !tbaa !8
  %123 = and i32 %122, 4
  %124 = icmp ne i32 %123, 0
  br i1 %124, label %125, label %174

125:                                              ; preds = %121
  %126 = load ptr, ptr %14, align 8, !tbaa !14
  %127 = load i32, ptr %126, align 4, !tbaa !8
  %128 = load i32, ptr %10, align 4, !tbaa !8
  %129 = lshr i32 %127, %128
  %130 = and i32 %129, 1
  %131 = load ptr, ptr %14, align 8, !tbaa !14
  %132 = load i32, ptr %131, align 4, !tbaa !8
  %133 = load i32, ptr %10, align 4, !tbaa !8
  %134 = add nsw i32 %133, 1
  %135 = lshr i32 %132, %134
  %136 = and i32 %135, 1
  %137 = icmp ne i32 %130, %136
  br i1 %137, label %138, label %150

138:                                              ; preds = %125
  %139 = load i32, ptr %10, align 4, !tbaa !8
  %140 = shl i32 1, %139
  %141 = load ptr, ptr %14, align 8, !tbaa !14
  %142 = load i32, ptr %141, align 4, !tbaa !8
  %143 = xor i32 %142, %140
  store i32 %143, ptr %141, align 4, !tbaa !8
  %144 = load i32, ptr %10, align 4, !tbaa !8
  %145 = add nsw i32 %144, 1
  %146 = shl i32 1, %145
  %147 = load ptr, ptr %14, align 8, !tbaa !14
  %148 = load i32, ptr %147, align 4, !tbaa !8
  %149 = xor i32 %148, %146
  store i32 %149, ptr %147, align 4, !tbaa !8
  br label %150

150:                                              ; preds = %138, %125
  call void @llvm.lifetime.start.p0(i64 4, ptr %20) #12
  %151 = load ptr, ptr %13, align 8, !tbaa !49
  %152 = load i32, ptr %10, align 4, !tbaa !8
  %153 = sext i32 %152 to i64
  %154 = getelementptr inbounds i8, ptr %151, i64 %153
  %155 = load i8, ptr %154, align 1, !tbaa !51
  %156 = sext i8 %155 to i32
  store i32 %156, ptr %20, align 4, !tbaa !8
  %157 = load ptr, ptr %13, align 8, !tbaa !49
  %158 = load i32, ptr %10, align 4, !tbaa !8
  %159 = add nsw i32 %158, 1
  %160 = sext i32 %159 to i64
  %161 = getelementptr inbounds i8, ptr %157, i64 %160
  %162 = load i8, ptr %161, align 1, !tbaa !51
  %163 = load ptr, ptr %13, align 8, !tbaa !49
  %164 = load i32, ptr %10, align 4, !tbaa !8
  %165 = sext i32 %164 to i64
  %166 = getelementptr inbounds i8, ptr %163, i64 %165
  store i8 %162, ptr %166, align 1, !tbaa !51
  %167 = load i32, ptr %20, align 4, !tbaa !8
  %168 = trunc i32 %167 to i8
  %169 = load ptr, ptr %13, align 8, !tbaa !49
  %170 = load i32, ptr %10, align 4, !tbaa !8
  %171 = add nsw i32 %170, 1
  %172 = sext i32 %171 to i64
  %173 = getelementptr inbounds i8, ptr %169, i64 %172
  store i8 %168, ptr %173, align 1, !tbaa !51
  call void @llvm.lifetime.end.p0(i64 4, ptr %20) #12
  br label %174

174:                                              ; preds = %150, %121
  %175 = load i32, ptr %18, align 4, !tbaa !8
  store i32 %175, ptr %8, align 4
  store i32 1, ptr %19, align 4
  br label %176

176:                                              ; preds = %174, %97, %91
  call void @llvm.lifetime.end.p0(i64 4, ptr %18) #12
  br label %177

177:                                              ; preds = %176, %79
  %178 = load i32, ptr %8, align 4
  ret i32 %178
}