; Function Attrs: nofree norecurse nosync nounwind memory(readwrite, inaccessiblemem: none) uwtable
define range(i32 0, 8) i32 @Abc_TtCofactorPerm(ptr noundef %0, i32 noundef %1, i32 noundef %2, i32 noundef %3, ptr noundef captures(none) %4, ptr noundef captures(none) %5, i32 noundef %6) local_unnamed_addr #7 {
  %.not = icmp eq i32 %3, 0
  br i1 %.not, label %17, label %8

8:                                                ; preds = %7
  %9 = tail call i32 @Abc_TtCofactorPermConfig(ptr noundef %0, i32 noundef %1, i32 noundef %2, i32 noundef 1, i32 noundef 0)
  %.not64 = icmp eq i32 %9, 0
  br i1 %.not64, label %Abc_TtCopy.exit72, label %10

10:                                               ; preds = %8
  %11 = load i32, ptr %5, align 4, !tbaa !10
  %12 = lshr i32 %11, %1
  %13 = add nsw i32 %1, 1
  %14 = lshr i32 %11, %13
  %15 = xor i32 %12, %14
  %16 = and i32 %15, 1
  %.not65 = icmp eq i32 %16, 0
  br i1 %.not65, label %Abc_TtCopy.exit72.sink.split, label %Abc_TtCopy.exit72.sink.split.sink.split

17:                                               ; preds = %7
  %18 = icmp sgt i32 %2, 0
  br i1 %18, label %.lr.ph18.preheader.i, label %Abc_TtCopy.exit

.lr.ph18.preheader.i:                             ; preds = %17
  %wide.trip.count24.i = zext nneg i32 %2 to i64
  br label %.lr.ph18.i

.lr.ph18.i:                                       ; preds = %.lr.ph18.i, %.lr.ph18.preheader.i
  %indvars.iv21.i = phi i64 [ 0, %.lr.ph18.preheader.i ], [ %indvars.iv.next22.i, %.lr.ph18.i ]
  %19 = getelementptr inbounds nuw i64, ptr %0, i64 %indvars.iv21.i
  %20 = load i64, ptr %19, align 8, !tbaa !3
  %21 = getelementptr inbounds nuw i64, ptr @Abc_TtCofactorPerm.pCopy1, i64 %indvars.iv21.i
  store i64 %20, ptr %21, align 8, !tbaa !3
  %indvars.iv.next22.i = add nuw nsw i64 %indvars.iv21.i, 1
  %exitcond25.not.i = icmp eq i64 %indvars.iv.next22.i, %wide.trip.count24.i
  br i1 %exitcond25.not.i, label %Abc_TtCopy.exit, label %.lr.ph18.i, !llvm.loop !23

Abc_TtCopy.exit:                                  ; preds = %.lr.ph18.i, %17
  %22 = tail call i32 @Abc_TtCofactorPermConfig(ptr noundef %0, i32 noundef %1, i32 noundef %2, i32 noundef 0, i32 noundef %6)
  %23 = icmp eq i32 %22, 0
  br i1 %23, label %Abc_TtCopy.exit72, label %24

24:                                               ; preds = %Abc_TtCopy.exit
  %25 = zext i32 %2 to i64
  br label %26

26:                                               ; preds = %29, %24
  %indvars.iv.i = phi i64 [ %30, %29 ], [ %25, %24 ]
  %27 = trunc nuw i64 %indvars.iv.i to i32
  %28 = icmp sgt i32 %27, 0
  br i1 %28, label %29, label %select.unfold

29:                                               ; preds = %26
  %30 = add nsw i64 %indvars.iv.i, -1
  %31 = getelementptr inbounds nuw i64, ptr %0, i64 %30
  %32 = load i64, ptr %31, align 8, !tbaa !3
  %33 = getelementptr inbounds nuw i64, ptr @Abc_TtCofactorPerm.pCopy1, i64 %30
  %34 = load i64, ptr %33, align 8, !tbaa !3
  %.not.i = icmp eq i64 %32, %34
  br i1 %.not.i, label %26, label %35, !llvm.loop !35

35:                                               ; preds = %29
  %36 = icmp ult i64 %32, %34
  br i1 %36, label %select.unfold, label %Abc_TtCompareRev.exit

Abc_TtCompareRev.exit:                            ; preds = %35
  br i1 %18, label %.lr.ph18.i68, label %Abc_TtCopy.exit72

.lr.ph18.i68:                                     ; preds = %Abc_TtCompareRev.exit, %.lr.ph18.i68
  %indvars.iv21.i69 = phi i64 [ %indvars.iv.next22.i70, %.lr.ph18.i68 ], [ 0, %Abc_TtCompareRev.exit ]
  %37 = getelementptr inbounds nuw i64, ptr @Abc_TtCofactorPerm.pCopy1, i64 %indvars.iv21.i69
  %38 = load i64, ptr %37, align 8, !tbaa !3
  %39 = getelementptr inbounds nuw i64, ptr %0, i64 %indvars.iv21.i69
  store i64 %38, ptr %39, align 8, !tbaa !3
  %indvars.iv.next22.i70 = add nuw nsw i64 %indvars.iv21.i69, 1
  %exitcond25.not.i71 = icmp eq i64 %indvars.iv.next22.i70, %25
  br i1 %exitcond25.not.i71, label %Abc_TtCopy.exit72, label %.lr.ph18.i68, !llvm.loop !23

select.unfold:                                    ; preds = %26, %35
  %40 = and i32 %22, 1
  %.not60 = icmp eq i32 %40, 0
  br i1 %.not60, label %45, label %41

41:                                               ; preds = %select.unfold
  %42 = shl nuw i32 1, %1
  %43 = load i32, ptr %5, align 4, !tbaa !10
  %44 = xor i32 %43, %42
  store i32 %44, ptr %5, align 4, !tbaa !10
  br label %45

45:                                               ; preds = %41, %select.unfold
  %46 = and i32 %22, 2
  %.not61 = icmp eq i32 %46, 0
  br i1 %.not61, label %52, label %47

47:                                               ; preds = %45
  %48 = add nsw i32 %1, 1
  %49 = shl nuw i32 1, %48
  %50 = load i32, ptr %5, align 4, !tbaa !10
  %51 = xor i32 %50, %49
  store i32 %51, ptr %5, align 4, !tbaa !10
  br label %52

52:                                               ; preds = %47, %45
  %.not62 = icmp samesign ult i32 %22, 4
  br i1 %.not62, label %Abc_TtCopy.exit72, label %53

53:                                               ; preds = %52
  %54 = load i32, ptr %5, align 4, !tbaa !10
  %55 = lshr i32 %54, %1
  %56 = add nsw i32 %1, 1
  %57 = lshr i32 %54, %56
  %58 = xor i32 %55, %57
  %59 = and i32 %58, 1
  %.not63 = icmp eq i32 %59, 0
  br i1 %.not63, label %Abc_TtCopy.exit72.sink.split, label %Abc_TtCopy.exit72.sink.split.sink.split

Abc_TtCopy.exit72.sink.split.sink.split:          ; preds = %53, %10
  %.sink84 = phi i32 [ %11, %10 ], [ %54, %53 ]
  %.sink82.ph = phi i32 [ %13, %10 ], [ %56, %53 ]
  %.0.ph.ph = phi i32 [ %9, %10 ], [ %22, %53 ]
  %60 = shl i32 3, %1
  %61 = xor i32 %.sink84, %60
  store i32 %61, ptr %5, align 4, !tbaa !10
  br label %Abc_TtCopy.exit72.sink.split

Abc_TtCopy.exit72.sink.split:                     ; preds = %Abc_TtCopy.exit72.sink.split.sink.split, %53, %10
  %.sink82 = phi i32 [ %13, %10 ], [ %56, %53 ], [ %.sink82.ph, %Abc_TtCopy.exit72.sink.split.sink.split ]
  %.0.ph = phi i32 [ %9, %10 ], [ %22, %53 ], [ %.0.ph.ph, %Abc_TtCopy.exit72.sink.split.sink.split ]
  %62 = sext i32 %1 to i64
  %63 = getelementptr inbounds i8, ptr %4, i64 %62
  %64 = load i8, ptr %63, align 1, !tbaa !43
  %65 = sext i32 %.sink82 to i64
  %66 = getelementptr inbounds i8, ptr %4, i64 %65
  %67 = load i8, ptr %66, align 1, !tbaa !43
  store i8 %67, ptr %63, align 1, !tbaa !43
  store i8 %64, ptr %66, align 1, !tbaa !43
  br label %Abc_TtCopy.exit72

Abc_TtCopy.exit72:                                ; preds = %.lr.ph18.i68, %Abc_TtCopy.exit72.sink.split, %Abc_TtCompareRev.exit, %Abc_TtCopy.exit, %52, %8
  %.0 = phi i32 [ 0, %8 ], [ 0, %Abc_TtCopy.exit ], [ %22, %52 ], [ 0, %Abc_TtCompareRev.exit ], [ %.0.ph, %Abc_TtCopy.exit72.sink.split ], [ 0, %.lr.ph18.i68 ]
  ret i32 %.0
}